; Function Attrs: nounwind uwtable
define void @lv_obj_get_click_area(ptr nocapture noundef readonly %0, ptr noundef %1) local_unnamed_addr #0 {
  %3 = getelementptr inbounds nuw i8, ptr %0, i64 40
  %4 = load i32, ptr %3, align 4, !tbaa !31
  store i32 %4, ptr %1, align 4, !tbaa !31
  %5 = getelementptr inbounds nuw i8, ptr %0, i64 44
  %6 = load i32, ptr %5, align 4, !tbaa !32
  %7 = getelementptr inbounds nuw i8, ptr %1, i64 4
  store i32 %6, ptr %7, align 4, !tbaa !32
  %8 = getelementptr inbounds nuw i8, ptr %0, i64 48
  %9 = load i32, ptr %8, align 4, !tbaa !33
  %10 = getelementptr inbounds nuw i8, ptr %1, i64 8
  store i32 %9, ptr %10, align 4, !tbaa !33
  %11 = getelementptr inbounds nuw i8, ptr %0, i64 52
  %12 = load i32, ptr %11, align 4, !tbaa !34
  %13 = getelementptr inbounds nuw i8, ptr %1, i64 12
  store i32 %12, ptr %13, align 4, !tbaa !34
  %14 = getelementptr inbounds nuw i8, ptr %0, i64 16
  %15 = load ptr, ptr %14, align 8, !tbaa !6
  %.not = icmp eq ptr %15, null
  br i1 %.not, label %19, label %16

16:                                               ; preds = %2
  %17 = getelementptr inbounds nuw i8, ptr %15, i64 56
  %18 = load i32, ptr %17, align 8, !tbaa !54
  tail call void @lv_area_increase(ptr noundef nonnull %1, i32 noundef %18, i32 noundef %18) #8
  br label %19

19:                                               ; preds = %16, %2
  ret void
}